target datalayout = "e-m:e-p270:32:32-p271:32:32-p272:64:64-i64:64-i128:128-f80:128-n8:16:32:64-S128"
target triple = "x86_64-pc-linux-gnu"

%struct._lv_draw_sw_unit_t = type { %struct._lv_draw_unit_t, ptr, i32 }
%struct._lv_draw_unit_t = type { ptr, ptr, ptr, ptr, ptr, ptr, ptr, ptr }
%struct._lv_draw_task_t = type { ptr, i32, %struct.lv_area_t, %struct.lv_area_t, %struct.lv_area_t, %struct.lv_area_t, i32, ptr, i8, i8 }
%struct.lv_area_t = type { i32, i32, i32, i32 }

; Function Attrs: nounwind uwtable
define internal void @execute_drawing(ptr noundef %0) #0 {
  %2 = alloca ptr, align 8
  %3 = alloca ptr, align 8
  store ptr %0, ptr %2, align 8, !tbaa !7
  call void @llvm.lifetime.start.p0(i64 8, ptr %3) #4
  %4 = load ptr, ptr %2, align 8, !tbaa !7
  %5 = getelementptr inbounds nuw %struct._lv_draw_sw_unit_t, ptr %4, i32 0, i32 1
  %6 = load ptr, ptr %5, align 8, !tbaa !18
  store ptr %6, ptr %3, align 8, !tbaa !7
  %7 = load ptr, ptr %3, align 8, !tbaa !7
  %8 = getelementptr inbounds nuw %struct._lv_draw_task_t, ptr %7, i32 0, i32 1
  %9 = load i32, ptr %8, align 8, !tbaa !24
  switch i32 %9, label %76 [
    i32 1, label %10
    i32 2, label %17
    i32 3, label %24
    i32 4, label %31
    i32 5, label %38
    i32 8, label %45
    i32 7, label %52
    i32 9, label %57
    i32 6, label %62
    i32 10, label %69
  ]

10:                                               ; preds = %1
  %11 = load ptr, ptr %2, align 8, !tbaa !7
  %12 = load ptr, ptr %3, align 8, !tbaa !7
  %13 = getelementptr inbounds nuw %struct._lv_draw_task_t, ptr %12, i32 0, i32 7
  %14 = load ptr, ptr %13, align 8, !tbaa !25
  %15 = load ptr, ptr %3, align 8, !tbaa !7
  %16 = getelementptr inbounds nuw %struct._lv_draw_task_t, ptr %15, i32 0, i32 2
  call void @lv_draw_sw_fill(ptr noundef %11, ptr noundef %14, ptr noundef %16)
  br label %77

17:                                               ; preds = %1
  %18 = load ptr, ptr %2, align 8, !tbaa !7
  %19 = load ptr, ptr %3, align 8, !tbaa !7
  %20 = getelementptr inbounds nuw %struct._lv_draw_task_t, ptr %19, i32 0, i32 7
  %21 = load ptr, ptr %20, align 8, !tbaa !25
  %22 = load ptr, ptr %3, align 8, !tbaa !7
  %23 = getelementptr inbounds nuw %struct._lv_draw_task_t, ptr %22, i32 0, i32 2
  call void @lv_draw_sw_border(ptr noundef %18, ptr noundef %21, ptr noundef %23)
  br label %77

24:                                               ; preds = %1
  %25 = load ptr, ptr %2, align 8, !tbaa !7
  %26 = load ptr, ptr %3, align 8, !tbaa !7
  %27 = getelementptr inbounds nuw %struct._lv_draw_task_t, ptr %26, i32 0, i32 7
  %28 = load ptr, ptr %27, align 8, !tbaa !25
  %29 = load ptr, ptr %3, align 8, !tbaa !7
  %30 = getelementptr inbounds nuw %struct._lv_draw_task_t, ptr %29, i32 0, i32 2
  call void @lv_draw_sw_box_shadow(ptr noundef %25, ptr noundef %28, ptr noundef %30)
  br label %77

31:                                               ; preds = %1
  %32 = load ptr, ptr %2, align 8, !tbaa !7
  %33 = load ptr, ptr %3, align 8, !tbaa !7
  %34 = getelementptr inbounds nuw %struct._lv_draw_task_t, ptr %33, i32 0, i32 7
  %35 = load ptr, ptr %34, align 8, !tbaa !25
  %36 = load ptr, ptr %3, align 8, !tbaa !7
  %37 = getelementptr inbounds nuw %struct._lv_draw_task_t, ptr %36, i32 0, i32 2
  call void @lv_draw_sw_label(ptr noundef %32, ptr noundef %35, ptr noundef %37)
  br label %77

38:                                               ; preds = %1
  %39 = load ptr, ptr %2, align 8, !tbaa !7
  %40 = load ptr, ptr %3, align 8, !tbaa !7
  %41 = getelementptr inbounds nuw %struct._lv_draw_task_t, ptr %40, i32 0, i32 7
  %42 = load ptr, ptr %41, align 8, !tbaa !25
  %43 = load ptr, ptr %3, align 8, !tbaa !7
  %44 = getelementptr inbounds nuw %struct._lv_draw_task_t, ptr %43, i32 0, i32 2
  call void @lv_draw_sw_image(ptr noundef %39, ptr noundef %42, ptr noundef %44)
  br label %77

45:                                               ; preds = %1
  %46 = load ptr, ptr %2, align 8, !tbaa !7
  %47 = load ptr, ptr %3, align 8, !tbaa !7
  %48 = getelementptr inbounds nuw %struct._lv_draw_task_t, ptr %47, i32 0, i32 7
  %49 = load ptr, ptr %48, align 8, !tbaa !25
  %50 = load ptr, ptr %3, align 8, !tbaa !7
  %51 = getelementptr inbounds nuw %struct._lv_draw_task_t, ptr %50, i32 0, i32 2
  call void @lv_draw_sw_arc(ptr noundef %46, ptr noundef %49, ptr noundef %51)
  br label %77

52:                                               ; preds = %1
  %53 = load ptr, ptr %2, align 8, !tbaa !7
  %54 = load ptr, ptr %3, align 8, !tbaa !7
  %55 = getelementptr inbounds nuw %struct._lv_draw_task_t, ptr %54, i32 0, i32 7
  %56 = load ptr, ptr %55, align 8, !tbaa !25
  call void @lv_draw_sw_line(ptr noundef %53, ptr noundef %56)
  br label %77

57:                                               ; preds = %1
  %58 = load ptr, ptr %2, align 8, !tbaa !7
  %59 = load ptr, ptr %3, align 8, !tbaa !7
  %60 = getelementptr inbounds nuw %struct._lv_draw_task_t, ptr %59, i32 0, i32 7
  %61 = load ptr, ptr %60, align 8, !tbaa !25
  call void @lv_draw_sw_triangle(ptr noundef %58, ptr noundef %61)
  br label %77

62:                                               ; preds = %1
  %63 = load ptr, ptr %2, align 8, !tbaa !7
  %64 = load ptr, ptr %3, align 8, !tbaa !7
  %65 = getelementptr inbounds nuw %struct._lv_draw_task_t, ptr %64, i32 0, i32 7
  %66 = load ptr, ptr %65, align 8, !tbaa !25
  %67 = load ptr, ptr %3, align 8, !tbaa !7
  %68 = getelementptr inbounds nuw %struct._lv_draw_task_t, ptr %67, i32 0, i32 2
  call void @lv_draw_sw_layer(ptr noundef %63, ptr noundef %66, ptr noundef %68)
  br label %77

69:                                               ; preds = %1
  %70 = load ptr, ptr %2, align 8, !tbaa !7
  %71 = load ptr, ptr %3, align 8, !tbaa !7
  %72 = getelementptr inbounds nuw %struct._lv_draw_task_t, ptr %71, i32 0, i32 7
  %73 = load ptr, ptr %72, align 8, !tbaa !25
  %74 = load ptr, ptr %3, align 8, !tbaa !7
  %75 = getelementptr inbounds nuw %struct._lv_draw_task_t, ptr %74, i32 0, i32 2
  call void @lv_draw_sw_mask_rect(ptr noundef %70, ptr noundef %73, ptr noundef %75)
  br label %77

76:                                               ; preds = %1
  br label %77

77:                                               ; preds = %76, %69, %62, %57, %52, %45, %38, %31, %24, %17, %10
  call void @llvm.lifetime.end.p0(i64 8, ptr %3) #4
  ret void
}

; Function Attrs: inlinehint nounwind uwtable
define internal void @execute_drawing_unit(ptr noundef %0) #3 {
  %2 = alloca ptr, align 8
  store ptr %0, ptr %2, align 8, !tbaa !7
  %3 = load ptr, ptr %2, align 8, !tbaa !7
  call void @execute_drawing(ptr noundef %3)
  %4 = load ptr, ptr %2, align 8, !tbaa !7
  %5 = getelementptr inbounds nuw %struct._lv_draw_sw_unit_t, ptr %4, i32 0, i32 1
  %6 = load ptr, ptr %5, align 8, !tbaa !18
  %7 = getelementptr inbounds nuw %struct._lv_draw_task_t, ptr %6, i32 0, i32 6
  store volatile i32 3, ptr %7, align 4, !tbaa !19
  %8 = load ptr, ptr %2, align 8, !tbaa !7
  %9 = getelementptr inbounds nuw %struct._lv_draw_sw_unit_t, ptr %8, i32 0, i32 1
  store ptr null, ptr %9, align 8, !tbaa !18
  call void @lv_draw_dispatch_request()
  ret void
}

; Function Attrs: nounwind uwtable
define internal i32 @dispatch(ptr noundef %0, ptr noundef %1) #0 {
  %3 = alloca i32, align 4
  %4 = alloca ptr, align 8
  %5 = alloca ptr, align 8
  %6 = alloca ptr, align 8
  %7 = alloca i32, align 4
  %8 = alloca ptr, align 8
  %9 = alloca ptr, align 8
  store ptr %0, ptr %4, align 8, !tbaa !7
  store ptr %1, ptr %5, align 8, !tbaa !7
  call void @llvm.lifetime.start.p0(i64 8, ptr %6) #4
  %10 = load ptr, ptr %4, align 8, !tbaa !7
  store ptr %10, ptr %6, align 8, !tbaa !7
  %11 = load ptr, ptr %6, align 8, !tbaa !7
  %12 = getelementptr inbounds nuw %struct._lv_draw_sw_unit_t, ptr %11, i32 0, i32 1
  %13 = load ptr, ptr %12, align 8, !tbaa !18
  %14 = icmp ne ptr %13, null
  br i1 %14, label %15, label %16

15:                                               ; preds = %2
  store i32 0, ptr %3, align 4
  store i32 1, ptr %7, align 4
  br label %46

16:                                               ; preds = %2
  call void @llvm.lifetime.start.p0(i64 8, ptr %8) #4
  store ptr null, ptr %8, align 8, !tbaa !7
  %17 = load ptr, ptr %5, align 8, !tbaa !7
  %18 = call ptr @lv_draw_get_next_available_task(ptr noundef %17, ptr noundef null, i8 noundef zeroext 1)
  store ptr %18, ptr %8, align 8, !tbaa !7
  %19 = load ptr, ptr %8, align 8, !tbaa !7
  %20 = icmp eq ptr %19, null
  br i1 %20, label %21, label %22

21:                                               ; preds = %16
  store i32 -1, ptr %3, align 4
  store i32 1, ptr %7, align 4
  br label %45

22:                                               ; preds = %16
  call void @llvm.lifetime.start.p0(i64 8, ptr %9) #4
  %23 = load ptr, ptr %5, align 8, !tbaa !7
  %24 = call ptr @lv_draw_layer_alloc_buf(ptr noundef %23)
  store ptr %24, ptr %9, align 8, !tbaa !7
  %25 = load ptr, ptr %9, align 8, !tbaa !7
  %26 = icmp eq ptr %25, null
  br i1 %26, label %27, label %28

27:                                               ; preds = %22
  store i32 -1, ptr %3, align 4
  store i32 1, ptr %7, align 4
  br label %44

28:                                               ; preds = %22
  %29 = load ptr, ptr %8, align 8, !tbaa !7
  %30 = getelementptr inbounds nuw %struct._lv_draw_task_t, ptr %29, i32 0, i32 6
  store volatile i32 2, ptr %30, align 4, !tbaa !19
  %31 = load ptr, ptr %5, align 8, !tbaa !7
  %32 = load ptr, ptr %6, align 8, !tbaa !7
  %33 = getelementptr inbounds nuw %struct._lv_draw_sw_unit_t, ptr %32, i32 0, i32 0
  %34 = getelementptr inbounds nuw %struct._lv_draw_unit_t, ptr %33, i32 0, i32 1
  store ptr %31, ptr %34, align 8, !tbaa !22
  %35 = load ptr, ptr %8, align 8, !tbaa !7
  %36 = getelementptr inbounds nuw %struct._lv_draw_task_t, ptr %35, i32 0, i32 5
  %37 = load ptr, ptr %6, align 8, !tbaa !7
  %38 = getelementptr inbounds nuw %struct._lv_draw_sw_unit_t, ptr %37, i32 0, i32 0
  %39 = getelementptr inbounds nuw %struct._lv_draw_unit_t, ptr %38, i32 0, i32 2
  store ptr %36, ptr %39, align 8, !tbaa !23
  %40 = load ptr, ptr %8, align 8, !tbaa !7
  %41 = load ptr, ptr %6, align 8, !tbaa !7
  %42 = getelementptr inbounds nuw %struct._lv_draw_sw_unit_t, ptr %41, i32 0, i32 1
  store ptr %40, ptr %42, align 8, !tbaa !18
  %43 = load ptr, ptr %6, align 8, !tbaa !7
  call void @execute_drawing_unit(ptr noundef %43)
  store i32 1, ptr %3, align 4
  store i32 1, ptr %7, align 4
  br label %44

44:                                               ; preds = %28, %27
  call void @llvm.lifetime.end.p0(i64 8, ptr %9) #4
  br label %45

45:                                               ; preds = %44, %21
  call void @llvm.lifetime.end.p0(i64 8, ptr %8) #4
  br label %46

46:                                               ; preds = %45, %15
  call void @llvm.lifetime.end.p0(i64 8, ptr %6) #4
  %47 = load i32, ptr %3, align 4
  ret i32 %47
}