; Function Attrs: nounwind uwtable
define internal range(i32 -1, 2) i32 @dispatch(ptr noundef %0, ptr noundef %1) #0 {
  %3 = getelementptr inbounds nuw i8, ptr %0, i64 64
  %4 = load ptr, ptr %3, align 8, !tbaa !14
  %.not = icmp eq ptr %4, null
  br i1 %.not, label %5, label %58

5:                                                ; preds = %2
  %6 = tail call ptr @lv_draw_get_next_available_task(ptr noundef %1, ptr noundef null, i8 noundef zeroext 1) #5
  %7 = icmp eq ptr %6, null
  br i1 %7, label %58, label %8

8:                                                ; preds = %5
  %9 = tail call ptr @lv_draw_layer_alloc_buf(ptr noundef %1) #5
  %10 = icmp eq ptr %9, null
  br i1 %10, label %58, label %11

11:                                               ; preds = %8
  %12 = getelementptr inbounds nuw i8, ptr %6, i64 76
  store volatile i32 2, ptr %12, align 4, !tbaa !15
  %13 = getelementptr inbounds nuw i8, ptr %0, i64 8
  store ptr %1, ptr %13, align 8, !tbaa !18
  %14 = getelementptr inbounds nuw i8, ptr %6, i64 60
  %15 = getelementptr inbounds nuw i8, ptr %0, i64 16
  store ptr %14, ptr %15, align 8, !tbaa !19
  store ptr %6, ptr %3, align 8, !tbaa !14
  %16 = getelementptr inbounds nuw i8, ptr %6, i64 8
  %17 = load i32, ptr %16, align 8, !tbaa !20
  switch i32 %17, label %execute_drawing_unit.exit [
    i32 1, label %18
    i32 2, label %22
    i32 3, label %26
    i32 4, label %30
    i32 5, label %34
    i32 8, label %38
    i32 7, label %42
    i32 9, label %45
    i32 6, label %48
    i32 10, label %52
  ]

18:                                               ; preds = %11
  %19 = getelementptr inbounds nuw i8, ptr %6, i64 80
  %20 = load ptr, ptr %19, align 8, !tbaa !21
  %21 = getelementptr inbounds nuw i8, ptr %6, i64 12
  tail call void @lv_draw_sw_fill(ptr noundef nonnull %0, ptr noundef %20, ptr noundef nonnull %21) #5
  br label %execute_drawing_unit.exit

22:                                               ; preds = %11
  %23 = getelementptr inbounds nuw i8, ptr %6, i64 80
  %24 = load ptr, ptr %23, align 8, !tbaa !21
  %25 = getelementptr inbounds nuw i8, ptr %6, i64 12
  tail call void @lv_draw_sw_border(ptr noundef nonnull %0, ptr noundef %24, ptr noundef nonnull %25) #5
  br label %execute_drawing_unit.exit

26:                                               ; preds = %11
  %27 = getelementptr inbounds nuw i8, ptr %6, i64 80
  %28 = load ptr, ptr %27, align 8, !tbaa !21
  %29 = getelementptr inbounds nuw i8, ptr %6, i64 12
  tail call void @lv_draw_sw_box_shadow(ptr noundef nonnull %0, ptr noundef %28, ptr noundef nonnull %29) #5
  br label %execute_drawing_unit.exit

30:                                               ; preds = %11
  %31 = getelementptr inbounds nuw i8, ptr %6, i64 80
  %32 = load ptr, ptr %31, align 8, !tbaa !21
  %33 = getelementptr inbounds nuw i8, ptr %6, i64 12
  tail call void @lv_draw_sw_label(ptr noundef nonnull %0, ptr noundef %32, ptr noundef nonnull %33) #5
  br label %execute_drawing_unit.exit

34:                                               ; preds = %11
  %35 = getelementptr inbounds nuw i8, ptr %6, i64 80
  %36 = load ptr, ptr %35, align 8, !tbaa !21
  %37 = getelementptr inbounds nuw i8, ptr %6, i64 12
  tail call void @lv_draw_sw_image(ptr noundef nonnull %0, ptr noundef %36, ptr noundef nonnull %37) #5
  br label %execute_drawing_unit.exit

38:                                               ; preds = %11
  %39 = getelementptr inbounds nuw i8, ptr %6, i64 80
  %40 = load ptr, ptr %39, align 8, !tbaa !21
  %41 = getelementptr inbounds nuw i8, ptr %6, i64 12
  tail call void @lv_draw_sw_arc(ptr noundef nonnull %0, ptr noundef %40, ptr noundef nonnull %41) #5
  br label %execute_drawing_unit.exit

42:                                               ; preds = %11
  %43 = getelementptr inbounds nuw i8, ptr %6, i64 80
  %44 = load ptr, ptr %43, align 8, !tbaa !21
  tail call void @lv_draw_sw_line(ptr noundef nonnull %0, ptr noundef %44) #5
  br label %execute_drawing_unit.exit

45:                                               ; preds = %11
  %46 = getelementptr inbounds nuw i8, ptr %6, i64 80
  %47 = load ptr, ptr %46, align 8, !tbaa !21
  tail call void @lv_draw_sw_triangle(ptr noundef nonnull %0, ptr noundef %47) #5
  br label %execute_drawing_unit.exit

48:                                               ; preds = %11
  %49 = getelementptr inbounds nuw i8, ptr %6, i64 80
  %50 = load ptr, ptr %49, align 8, !tbaa !21
  %51 = getelementptr inbounds nuw i8, ptr %6, i64 12
  tail call void @lv_draw_sw_layer(ptr noundef nonnull %0, ptr noundef %50, ptr noundef nonnull %51) #5
  br label %execute_drawing_unit.exit

52:                                               ; preds = %11
  %53 = getelementptr inbounds nuw i8, ptr %6, i64 80
  %54 = load ptr, ptr %53, align 8, !tbaa !21
  %55 = getelementptr inbounds nuw i8, ptr %6, i64 12
  tail call void @lv_draw_sw_mask_rect(ptr noundef nonnull %0, ptr noundef %54, ptr noundef nonnull %55) #5
  br label %execute_drawing_unit.exit

execute_drawing_unit.exit:                        ; preds = %11, %18, %22, %26, %30, %34, %38, %42, %45, %48, %52
  %56 = load ptr, ptr %3, align 8, !tbaa !14
  %57 = getelementptr inbounds nuw i8, ptr %56, i64 76
  store volatile i32 3, ptr %57, align 4, !tbaa !15
  store ptr null, ptr %3, align 8, !tbaa !14
  tail call void @lv_draw_dispatch_request() #5
  br label %58

58:                                               ; preds = %5, %8, %execute_drawing_unit.exit, %2
  %.0 = phi i32 [ 0, %2 ], [ -1, %5 ], [ 1, %execute_drawing_unit.exit ], [ -1, %8 ]
  ret i32 %.0
}